Certificate:
    Data:
        Version: 3 (0x2)
        Serial Number: 4098 (0x1002)
    Signature Algorithm: ecdsa-with-SHA256
        Issuer: CN=sros2testCA
        Validity
            Not Before: Sep 20 00:37:42 2018 GMT
            Not After : Sep 17 00:37:42 2028 GMT
        Subject: CN=confbot_driver
        Subject Public Key Info:
            Public Key Algorithm: id-ecPublicKey
                Public-Key: (256 bit)
                pub: 
                    04:e0:8a:9f:c7:3e:9c:23:6f:74:f1:7e:c6:84:66:
                    97:7a:6d:88:44:e1:82:a5:d0:67:2e:11:18:13:7a:
                    5a:5a:55:b9:62:4f:00:fe:30:ab:43:ae:86:b1:52:
                    86:c4:a0:e8:2e:75:47:e4:26:63:db:75:10:9a:48:
                    a0:d8:f5:c0:5f
                ASN1 OID: prime256v1
                NIST CURVE: P-256
        X509v3 extensions:
            X509v3 Basic Constraints: 
                CA:FALSE
    Signature Algorithm: ecdsa-with-SHA256
         30:44:02:20:44:db:82:6e:61:93:a4:52:1e:15:81:72:7a:85:
         53:74:d8:6e:ed:08:29:ea:ff:7f:b4:af:83:c7:51:27:db:c7:
         02:20:49:3c:42:e4:06:dc:e9:35:13:5b:76:ac:fe:d2:4a:56:
         a3:9d:76:27:b3:0a:73:aa:d6:c1:b7:02:8c:d1:cb:4c
-----BEGIN CERTIFICATE-----
MIIBKjCB0qADAgECAgIQAjAKBggqhkjOPQQDAjAWMRQwEgYDVQQDDAtzcm9zMnRl
c3RDQTAeFw0xODA5MjAwMDM3NDJaFw0yODA5MTcwMDM3NDJaMBkxFzAVBgNVBAMM
DmNvbmZib3RfZHJpdmVyMFkwEwYHKoZIzj0CAQYIKoZIzj0DAQcDQgAE4Iqfxz6c
I2908X7GhGaXem2IROGCpdBnLhEYE3paWlW5Yk8A/jCrQ66GsVKGxKDoLnVH5CZj
23UQmkig2PXAX6MNMAswCQYDVR0TBAIwADAKBggqhkjOPQQDAgNHADBEAiBE24Ju
YZOkUh4VgXJ6hVN02G7tCCnq/3+0r4PHUSfbxwIgSTxC5Abc6TUTW3as/tJKVqOd
diezCnOq1sG3AozRy0w=
-----END CERTIFICATE-----
