Certificate:
    Data:
        Version: 3 (0x2)
        Serial Number: 4096 (0x1000)
    Signature Algorithm: ecdsa-with-SHA256
        Issuer: CN=sros2testCA
        Validity
            Not Before: Sep 21 22:15:56 2018 GMT
            Not After : Sep 18 22:15:56 2028 GMT
        Subject: CN=confbot_driver
        Subject Public Key Info:
            Public Key Algorithm: id-ecPublicKey
                Public-Key: (256 bit)
                pub: 
                    04:28:eb:fd:38:63:74:6e:cc:17:27:3f:5b:13:c8:
                    51:f0:e7:d9:50:5d:57:e9:11:11:f8:55:19:43:ad:
                    60:6b:74:32:93:73:ba:14:7d:07:01:b6:e8:00:b6:
                    87:0a:ef:e8:c0:fc:9c:c0:5e:aa:fc:5e:c5:ad:43:
                    b0:56:e7:7d:f5
                ASN1 OID: prime256v1
                NIST CURVE: P-256
        X509v3 extensions:
            X509v3 Basic Constraints: 
                CA:FALSE
    Signature Algorithm: ecdsa-with-SHA256
         30:44:02:20:7a:f7:df:ce:54:05:ef:d2:68:f6:12:51:9e:2d:
         9c:53:0c:d8:b1:17:e9:d3:d7:a8:5b:0b:c0:6a:be:fa:d3:bf:
         02:20:04:69:db:83:d0:a0:40:5a:b6:1e:9a:cd:e5:8a:a6:13:
         46:bd:56:3b:c7:2b:35:f7:fd:85:23:1e:99:06:60:98
-----BEGIN CERTIFICATE-----
MIIBKjCB0qADAgECAgIQADAKBggqhkjOPQQDAjAWMRQwEgYDVQQDDAtzcm9zMnRl
c3RDQTAeFw0xODA5MjEyMjE1NTZaFw0yODA5MTgyMjE1NTZaMBkxFzAVBgNVBAMM
DmNvbmZib3RfZHJpdmVyMFkwEwYHKoZIzj0CAQYIKoZIzj0DAQcDQgAEKOv9OGN0
bswXJz9bE8hR8OfZUF1X6RER+FUZQ61ga3Qyk3O6FH0HAbboALaHCu/owPycwF6q
/F7FrUOwVud99aMNMAswCQYDVR0TBAIwADAKBggqhkjOPQQDAgNHADBEAiB699/O
VAXv0mj2ElGeLZxTDNixF+nT16hbC8BqvvrTvwIgBGnbg9CgQFq2HprN5YqmE0a9
VjvHKzX3/YUjHpkGYJg=
-----END CERTIFICATE-----
