Certificate:
    Data:
        Version: 3 (0x2)
        Serial Number: 4096 (0x1000)
    Signature Algorithm: ecdsa-with-SHA256
        Issuer: CN=sros2testCA
        Validity
            Not Before: Sep 20 00:37:29 2018 GMT
            Not After : Sep 17 00:37:29 2028 GMT
        Subject: CN=launch_ros
        Subject Public Key Info:
            Public Key Algorithm: id-ecPublicKey
                Public-Key: (256 bit)
                pub: 
                    04:73:8c:17:91:91:a2:ff:a6:08:e1:fb:9c:3e:f6:
                    19:58:02:76:78:3b:07:81:d5:1d:80:de:ef:6a:bc:
                    02:9b:00:62:df:bb:d8:3b:ea:6d:60:8f:80:7d:e2:
                    05:be:3c:5e:8c:d5:77:80:7f:45:f7:d2:f9:c9:ad:
                    13:11:7f:b7:59
                ASN1 OID: prime256v1
                NIST CURVE: P-256
        X509v3 extensions:
            X509v3 Basic Constraints: 
                CA:FALSE
    Signature Algorithm: ecdsa-with-SHA256
         30:45:02:21:00:d5:90:62:43:8b:62:d8:20:ae:b5:91:aa:4e:
         12:7c:bf:4f:bb:93:a7:54:3a:93:cf:8e:75:8a:17:5e:32:7c:
         b9:02:20:20:3f:58:4d:31:33:84:63:35:e3:02:ac:48:85:89:
         59:88:12:77:0c:41:4c:95:bc:d8:ae:b9:31:ca:ea:d0:22
-----BEGIN CERTIFICATE-----
MIIBJzCBzqADAgECAgIQADAKBggqhkjOPQQDAjAWMRQwEgYDVQQDDAtzcm9zMnRl
c3RDQTAeFw0xODA5MjAwMDM3MjlaFw0yODA5MTcwMDM3MjlaMBUxEzARBgNVBAMM
CmxhdW5jaF9yb3MwWTATBgcqhkjOPQIBBggqhkjOPQMBBwNCAARzjBeRkaL/pgjh
+5w+9hlYAnZ4OweB1R2A3u9qvAKbAGLfu9g76m1gj4B94gW+PF6M1XeAf0X30vnJ
rRMRf7dZow0wCzAJBgNVHRMEAjAAMAoGCCqGSM49BAMCA0gAMEUCIQDVkGJDi2LY
IK61kapOEny/T7uTp1Q6k8+OdYoXXjJ8uQIgID9YTTEzhGM14wKsSIWJWYgSdwxB
TJW82K65Mcrq0CI=
-----END CERTIFICATE-----
