Certificate:
    Data:
        Version: 3 (0x2)
        Serial Number: 4097 (0x1001)
    Signature Algorithm: ecdsa-with-SHA256
        Issuer: CN=sros2testCA
        Validity
            Not Before: Sep 20 00:37:36 2018 GMT
            Not After : Sep 17 00:37:36 2028 GMT
        Subject: CN=robot_state_publisher
        Subject Public Key Info:
            Public Key Algorithm: id-ecPublicKey
                Public-Key: (256 bit)
                pub: 
                    04:08:20:8b:93:60:2e:7d:04:c2:33:17:84:1e:1b:
                    ba:24:3b:46:b1:25:01:55:70:c0:7b:2d:25:ab:db:
                    1e:0e:94:5d:f4:7c:a9:bb:98:03:14:67:f3:3a:57:
                    00:6f:3d:1c:13:c1:92:20:25:13:03:39:50:14:dc:
                    38:7d:29:49:fb
                ASN1 OID: prime256v1
                NIST CURVE: P-256
        X509v3 extensions:
            X509v3 Basic Constraints: 
                CA:FALSE
    Signature Algorithm: ecdsa-with-SHA256
         30:45:02:20:68:c9:ba:b6:dc:17:e3:fc:ff:f1:3f:d3:9f:c6:
         e6:26:dd:26:b8:aa:d8:ac:c8:4e:49:4b:ca:c4:0f:8e:46:a4:
         02:21:00:db:8e:8c:e6:59:b8:71:bd:15:aa:4f:27:d8:57:94:
         1f:53:16:85:e9:74:04:77:9d:1d:6d:6f:22:65:d9:65:80
-----BEGIN CERTIFICATE-----
MIIBMjCB2aADAgECAgIQATAKBggqhkjOPQQDAjAWMRQwEgYDVQQDDAtzcm9zMnRl
c3RDQTAeFw0xODA5MjAwMDM3MzZaFw0yODA5MTcwMDM3MzZaMCAxHjAcBgNVBAMM
FXJvYm90X3N0YXRlX3B1Ymxpc2hlcjBZMBMGByqGSM49AgEGCCqGSM49AwEHA0IA
BAggi5NgLn0EwjMXhB4buiQ7RrElAVVwwHstJavbHg6UXfR8qbuYAxRn8zpXAG89
HBPBkiAlEwM5UBTcOH0pSfujDTALMAkGA1UdEwQCMAAwCgYIKoZIzj0EAwIDSAAw
RQIgaMm6ttwX4/z/8T/Tn8bmJt0muKrYrMhOSUvKxA+ORqQCIQDbjozmWbhxvRWq
TyfYV5QfUxaF6XQEd50dbW8iZdllgA==
-----END CERTIFICATE-----
