Certificate:
    Data:
        Version: 3 (0x2)
        Serial Number: 4098 (0x1002)
    Signature Algorithm: ecdsa-with-SHA256
        Issuer: CN=sros2testCA
        Validity
            Not Before: Sep 21 22:16:15 2018 GMT
            Not After : Sep 18 22:16:15 2028 GMT
        Subject: CN=launch_ros
        Subject Public Key Info:
            Public Key Algorithm: id-ecPublicKey
                Public-Key: (256 bit)
                pub: 
                    04:8d:f0:81:fe:20:b6:a2:7e:5b:4f:23:c6:c9:3e:
                    da:e3:e6:9e:99:03:8f:5e:24:06:6d:90:85:8e:66:
                    dc:6b:1a:b9:2d:bd:d3:07:0f:9e:02:b9:4c:18:11:
                    62:71:2f:38:5e:06:39:5f:8f:1e:89:cb:99:e0:51:
                    24:5a:77:3b:7f
                ASN1 OID: prime256v1
                NIST CURVE: P-256
        X509v3 extensions:
            X509v3 Basic Constraints: 
                CA:FALSE
    Signature Algorithm: ecdsa-with-SHA256
         30:46:02:21:00:a9:6d:e5:51:76:da:a4:c5:79:b8:46:e0:8b:
         12:6c:ec:7b:89:ea:95:e7:91:98:2a:55:b5:28:7d:64:b0:64:
         d0:02:21:00:ba:f8:fe:8a:6a:0d:a8:87:68:73:49:ae:f7:17:
         2b:3a:75:99:59:22:cd:aa:12:8f:01:86:33:a9:20:1b:b6:86
-----BEGIN CERTIFICATE-----
MIIBKDCBzqADAgECAgIQAjAKBggqhkjOPQQDAjAWMRQwEgYDVQQDDAtzcm9zMnRl
c3RDQTAeFw0xODA5MjEyMjE2MTVaFw0yODA5MTgyMjE2MTVaMBUxEzARBgNVBAMM
CmxhdW5jaF9yb3MwWTATBgcqhkjOPQIBBggqhkjOPQMBBwNCAASN8IH+ILaifltP
I8bJPtrj5p6ZA49eJAZtkIWOZtxrGrktvdMHD54CuUwYEWJxLzheBjlfjx6Jy5ng
USRadzt/ow0wCzAJBgNVHRMEAjAAMAoGCCqGSM49BAMCA0kAMEYCIQCpbeVRdtqk
xXm4RuCLEmzse4nqleeRmCpVtSh9ZLBk0AIhALr4/opqDaiHaHNJrvcXKzp1mVki
zaoSjwGGM6kgG7aG
-----END CERTIFICATE-----
