Certificate:
    Data:
        Version: 3 (0x2)
        Serial Number: 4099 (0x1003)
    Signature Algorithm: ecdsa-with-SHA256
        Issuer: CN=sros2testCA
        Validity
            Not Before: Sep 21 22:16:23 2018 GMT
            Not After : Sep 18 22:16:23 2028 GMT
        Subject: CN=pub_vel
        Subject Public Key Info:
            Public Key Algorithm: id-ecPublicKey
                Public-Key: (256 bit)
                pub: 
                    04:5f:ab:7a:b7:9e:bb:25:2e:23:e0:bd:78:80:23:
                    25:3a:83:eb:61:8d:07:80:39:7d:e5:1a:bb:8c:7a:
                    bb:56:9a:cc:92:00:db:9d:1d:cf:7a:7c:cb:86:8a:
                    01:06:e1:21:1f:31:a4:58:2a:55:67:ae:1c:bd:51:
                    fa:4d:e6:11:f6
                ASN1 OID: prime256v1
                NIST CURVE: P-256
        X509v3 extensions:
            X509v3 Basic Constraints: 
                CA:FALSE
    Signature Algorithm: ecdsa-with-SHA256
         30:45:02:20:13:1c:fc:eb:94:2a:29:f8:70:71:5d:c7:bc:c5:
         fc:61:dc:60:74:56:01:d8:0e:87:f2:c4:61:a7:2b:76:74:72:
         02:21:00:f1:d6:b4:d7:e0:24:8f:a9:2e:eb:d5:15:a1:72:99:
         05:6a:08:a6:9e:b6:c9:b3:b9:55:72:e4:94:cf:69:a2:6e
-----BEGIN CERTIFICATE-----
MIIBJDCBy6ADAgECAgIQAzAKBggqhkjOPQQDAjAWMRQwEgYDVQQDDAtzcm9zMnRl
c3RDQTAeFw0xODA5MjEyMjE2MjNaFw0yODA5MTgyMjE2MjNaMBIxEDAOBgNVBAMM
B3B1Yl92ZWwwWTATBgcqhkjOPQIBBggqhkjOPQMBBwNCAARfq3q3nrslLiPgvXiA
IyU6g+thjQeAOX3lGruMertWmsySANudHc96fMuGigEG4SEfMaRYKlVnrhy9UfpN
5hH2ow0wCzAJBgNVHRMEAjAAMAoGCCqGSM49BAMCA0gAMEUCIBMc/OuUKin4cHFd
x7zF/GHcYHRWAdgOh/LEYacrdnRyAiEA8da01+Akj6ku69UVoXKZBWoIpp62ybO5
VXLklM9pom4=
-----END CERTIFICATE-----
