Certificate:
    Data:
        Version: 3 (0x2)
        Serial Number: 4101 (0x1005)
    Signature Algorithm: ecdsa-with-SHA256
        Issuer: CN=sros2testCA
        Validity
            Not Before: Sep 21 22:16:41 2018 GMT
            Not After : Sep 18 22:16:41 2028 GMT
        Subject: CN=rviz
        Subject Public Key Info:
            Public Key Algorithm: id-ecPublicKey
                Public-Key: (256 bit)
                pub: 
                    04:53:1f:27:e3:26:1c:5f:b5:9e:55:18:5c:2b:fd:
                    65:05:af:d0:2f:21:9a:5d:7b:8b:6a:18:1c:cc:95:
                    fb:5e:a6:6f:a2:af:da:d9:d1:ce:a9:39:49:7b:e4:
                    e3:0b:78:7e:56:e6:3b:31:75:7f:ce:f8:36:72:68:
                    6e:91:c7:f2:33
                ASN1 OID: prime256v1
                NIST CURVE: P-256
        X509v3 extensions:
            X509v3 Basic Constraints: 
                CA:FALSE
    Signature Algorithm: ecdsa-with-SHA256
         30:45:02:21:00:ec:d9:32:10:37:42:99:c1:86:fe:71:c5:f3:
         91:0b:c4:cc:4d:39:9a:e3:ae:72:54:3c:b2:29:ac:b6:ca:34:
         7f:02:20:48:94:ab:1e:35:23:73:af:02:ad:df:4a:ba:5e:2c:
         b4:22:8d:4f:6c:81:87:a8:99:f6:0d:77:4e:a2:ae:4c:90
-----BEGIN CERTIFICATE-----
MIIBITCByKADAgECAgIQBTAKBggqhkjOPQQDAjAWMRQwEgYDVQQDDAtzcm9zMnRl
c3RDQTAeFw0xODA5MjEyMjE2NDFaFw0yODA5MTgyMjE2NDFaMA8xDTALBgNVBAMM
BHJ2aXowWTATBgcqhkjOPQIBBggqhkjOPQMBBwNCAARTHyfjJhxftZ5VGFwr/WUF
r9AvIZpde4tqGBzMlftepm+ir9rZ0c6pOUl75OMLeH5W5jsxdX/O+DZyaG6Rx/Iz
ow0wCzAJBgNVHRMEAjAAMAoGCCqGSM49BAMCA0gAMEUCIQDs2TIQN0KZwYb+ccXz
kQvEzE05muOuclQ8simstso0fwIgSJSrHjUjc68Crd9Kul4stCKNT2yBh6iZ9g13
TqKuTJA=
-----END CERTIFICATE-----
