Certificate:
    Data:
        Version: 3 (0x2)
        Serial Number: 4101 (0x1005)
    Signature Algorithm: ecdsa-with-SHA256
        Issuer: CN=sros2testCA
        Validity
            Not Before: Sep 20 00:38:12 2018 GMT
            Not After : Sep 17 00:38:12 2028 GMT
        Subject: CN=rviz
        Subject Public Key Info:
            Public Key Algorithm: id-ecPublicKey
                Public-Key: (256 bit)
                pub: 
                    04:0f:73:6f:3e:5a:fc:39:8a:6a:c0:84:a6:de:07:
                    16:7c:3f:55:13:96:03:ce:88:b4:33:62:c5:af:97:
                    df:8c:ba:b8:0c:b4:0f:3d:dc:2c:89:54:0e:57:f3:
                    df:b9:6e:46:04:95:af:94:99:03:dd:a5:ce:89:5c:
                    3b:ab:66:db:56
                ASN1 OID: prime256v1
                NIST CURVE: P-256
        X509v3 extensions:
            X509v3 Basic Constraints: 
                CA:FALSE
    Signature Algorithm: ecdsa-with-SHA256
         30:45:02:20:23:d8:9e:ff:6a:30:38:39:e7:ae:a1:0e:cd:72:
         93:8c:78:e0:31:ef:a4:b6:cd:2d:ff:cd:bb:43:89:44:83:d3:
         02:21:00:b0:0f:ec:9e:52:96:cd:ef:20:d0:3f:a1:c8:69:d9:
         d9:48:88:86:2c:fc:81:b1:44:a1:28:42:7a:e0:46:85:f2
-----BEGIN CERTIFICATE-----
MIIBITCByKADAgECAgIQBTAKBggqhkjOPQQDAjAWMRQwEgYDVQQDDAtzcm9zMnRl
c3RDQTAeFw0xODA5MjAwMDM4MTJaFw0yODA5MTcwMDM4MTJaMA8xDTALBgNVBAMM
BHJ2aXowWTATBgcqhkjOPQIBBggqhkjOPQMBBwNCAAQPc28+Wvw5imrAhKbeBxZ8
P1UTlgPOiLQzYsWvl9+MurgMtA893CyJVA5X89+5bkYEla+UmQPdpc6JXDurZttW
ow0wCzAJBgNVHRMEAjAAMAoGCCqGSM49BAMCA0gAMEUCICPYnv9qMDg5566hDs1y
k4x44DHvpLbNLf/Nu0OJRIPTAiEAsA/snlKWze8g0D+hyGnZ2UiIhiz8gbFEoShC
euBGhfI=
-----END CERTIFICATE-----
