Certificate:
    Data:
        Version: 3 (0x2)
        Serial Number: 4102 (0x1006)
    Signature Algorithm: ecdsa-with-SHA256
        Issuer: CN=sros2testCA
        Validity
            Not Before: Sep 20 00:42:26 2018 GMT
            Not After : Sep 17 00:42:26 2028 GMT
        Subject: CN=pub_vel
        Subject Public Key Info:
            Public Key Algorithm: id-ecPublicKey
                Public-Key: (256 bit)
                pub: 
                    04:38:ad:fa:3f:47:13:52:27:08:95:e0:1c:89:6b:
                    5b:4f:ce:e5:e3:0c:ca:33:83:db:a0:38:58:dd:e1:
                    21:34:06:a9:76:b3:1b:31:c4:92:fb:d3:86:54:89:
                    54:54:a6:f7:10:a7:e9:da:56:d2:f8:02:91:40:c2:
                    d1:e2:88:51:0c
                ASN1 OID: prime256v1
                NIST CURVE: P-256
        X509v3 extensions:
            X509v3 Basic Constraints: 
                CA:FALSE
    Signature Algorithm: ecdsa-with-SHA256
         30:45:02:21:00:c7:87:23:15:c8:28:7a:cf:2d:38:53:f0:2c:
         6a:93:8c:3b:b8:a0:91:ff:07:a7:10:44:d5:8e:c2:23:96:45:
         74:02:20:27:e4:0b:f0:cd:f0:19:f5:81:45:ec:e2:c5:5b:26:
         b3:17:2e:2d:9f:e7:8c:24:0f:9b:a1:c7:1d:cd:f2:7f:36
-----BEGIN CERTIFICATE-----
MIIBJDCBy6ADAgECAgIQBjAKBggqhkjOPQQDAjAWMRQwEgYDVQQDDAtzcm9zMnRl
c3RDQTAeFw0xODA5MjAwMDQyMjZaFw0yODA5MTcwMDQyMjZaMBIxEDAOBgNVBAMM
B3B1Yl92ZWwwWTATBgcqhkjOPQIBBggqhkjOPQMBBwNCAAQ4rfo/RxNSJwiV4ByJ
a1tPzuXjDMozg9ugOFjd4SE0Bql2sxsxxJL704ZUiVRUpvcQp+naVtL4ApFAwtHi
iFEMow0wCzAJBgNVHRMEAjAAMAoGCCqGSM49BAMCA0gAMEUCIQDHhyMVyCh6zy04
U/AsapOMO7igkf8HpxBE1Y7CI5ZFdAIgJ+QL8M3wGfWBRezixVsmsxcuLZ/njCQP
m6HHHc3yfzY=
-----END CERTIFICATE-----
