Certificate:
    Data:
        Version: 3 (0x2)
        Serial Number: 4103 (0x1007)
    Signature Algorithm: ecdsa-with-SHA256
        Issuer: CN=sros2testCA
        Validity
            Not Before: Sep 21 22:19:06 2018 GMT
            Not After : Sep 18 22:19:06 2028 GMT
        Subject: CN=safe_zone_publisher
        Subject Public Key Info:
            Public Key Algorithm: id-ecPublicKey
                Public-Key: (256 bit)
                pub: 
                    04:78:80:48:4f:12:9b:f6:92:94:3b:d7:93:85:b7:
                    53:44:9c:f0:20:39:2a:39:ec:1f:8e:95:86:f7:89:
                    22:d3:ba:a0:c9:ba:5e:5c:0c:d2:1c:e2:61:e4:49:
                    85:7b:d6:4e:26:a3:e4:e9:38:e4:2a:5f:b1:a7:0f:
                    07:08:0a:36:64
                ASN1 OID: prime256v1
                NIST CURVE: P-256
        X509v3 extensions:
            X509v3 Basic Constraints: 
                CA:FALSE
    Signature Algorithm: ecdsa-with-SHA256
         30:46:02:21:00:ca:2e:92:ff:06:8a:33:00:12:1b:f7:54:47:
         4e:7f:23:59:77:cc:ea:9c:77:39:70:91:13:86:d4:c3:a0:46:
         34:02:21:00:b4:cb:75:e4:ba:fc:44:2c:30:e0:a8:df:23:a3:
         7e:4c:26:f3:af:1d:79:65:b7:4e:60:80:ca:d4:5c:4f:98:98
-----BEGIN CERTIFICATE-----
MIIBMTCB16ADAgECAgIQBzAKBggqhkjOPQQDAjAWMRQwEgYDVQQDDAtzcm9zMnRl
c3RDQTAeFw0xODA5MjEyMjE5MDZaFw0yODA5MTgyMjE5MDZaMB4xHDAaBgNVBAMM
E3NhZmVfem9uZV9wdWJsaXNoZXIwWTATBgcqhkjOPQIBBggqhkjOPQMBBwNCAAR4
gEhPEpv2kpQ715OFt1NEnPAgOSo57B+OlYb3iSLTuqDJul5cDNIc4mHkSYV71k4m
o+TpOOQqX7GnDwcICjZkow0wCzAJBgNVHRMEAjAAMAoGCCqGSM49BAMCA0kAMEYC
IQDKLpL/BoozABIb91RHTn8jWXfM6px3OXCRE4bUw6BGNAIhALTLdeS6/EQsMOCo
3yOjfkwm868deWW3TmCAytRcT5iY
-----END CERTIFICATE-----
