Certificate:
    Data:
        Version: 3 (0x2)
        Serial Number: 4103 (0x1007)
    Signature Algorithm: ecdsa-with-SHA256
        Issuer: CN=sros2testCA
        Validity
            Not Before: Sep 20 01:00:36 2018 GMT
            Not After : Sep 17 01:00:36 2028 GMT
        Subject: CN=twist_publisher
        Subject Public Key Info:
            Public Key Algorithm: id-ecPublicKey
                Public-Key: (256 bit)
                pub: 
                    04:6a:e3:09:e5:62:10:01:12:49:2a:0a:50:7a:4f:
                    ed:18:84:bf:e7:6a:12:80:b6:71:8d:7e:8b:93:61:
                    f7:73:b1:66:0f:e2:e5:d6:84:e5:4f:22:71:c3:3a:
                    e5:9b:d9:99:79:6c:a4:c9:0b:8c:3a:e7:25:20:c5:
                    22:7b:df:4e:0d
                ASN1 OID: prime256v1
                NIST CURVE: P-256
        X509v3 extensions:
            X509v3 Basic Constraints: 
                CA:FALSE
    Signature Algorithm: ecdsa-with-SHA256
         30:45:02:21:00:a6:6b:7b:11:1f:88:5f:d8:8e:9b:91:8e:27:
         4e:03:49:4e:49:1b:66:10:1c:4a:4b:e4:ac:fa:09:07:89:b1:
         fa:02:20:54:0f:19:c6:e2:b1:29:7e:b7:99:56:da:9a:34:c9:
         8d:e7:a0:da:3a:92:ff:c0:37:93:a0:0a:2b:ea:6c:53:5d
-----BEGIN CERTIFICATE-----
MIIBLDCB06ADAgECAgIQBzAKBggqhkjOPQQDAjAWMRQwEgYDVQQDDAtzcm9zMnRl
c3RDQTAeFw0xODA5MjAwMTAwMzZaFw0yODA5MTcwMTAwMzZaMBoxGDAWBgNVBAMM
D3R3aXN0X3B1Ymxpc2hlcjBZMBMGByqGSM49AgEGCCqGSM49AwEHA0IABGrjCeVi
EAESSSoKUHpP7RiEv+dqEoC2cY1+i5Nh93OxZg/i5daE5U8iccM65ZvZmXlspMkL
jDrnJSDFInvfTg2jDTALMAkGA1UdEwQCMAAwCgYIKoZIzj0EAwIDSAAwRQIhAKZr
exEfiF/YjpuRjidOA0lOSRtmEBxKS+Ss+gkHibH6AiBUDxnG4rEpfreZVtqaNMmN
56DaOpL/wDeToAor6mxTXQ==
-----END CERTIFICATE-----
