Certificate:
    Data:
        Version: 3 (0x2)
        Serial Number: 4102 (0x1006)
    Signature Algorithm: ecdsa-with-SHA256
        Issuer: CN=sros2testCA
        Validity
            Not Before: Sep 21 22:16:47 2018 GMT
            Not After : Sep 18 22:16:47 2028 GMT
        Subject: CN=twist_publisher
        Subject Public Key Info:
            Public Key Algorithm: id-ecPublicKey
                Public-Key: (256 bit)
                pub: 
                    04:41:c6:15:c7:e0:5f:72:e0:de:7f:ff:38:4d:0b:
                    40:2a:ef:c4:6d:e7:37:1d:9f:54:7f:f7:9f:25:52:
                    a3:1b:86:e7:c8:89:a6:05:d2:4e:f4:ae:1f:0d:a7:
                    df:83:bd:50:1c:da:56:56:22:f3:f5:24:c0:b0:35:
                    3c:52:d9:31:d7
                ASN1 OID: prime256v1
                NIST CURVE: P-256
        X509v3 extensions:
            X509v3 Basic Constraints: 
                CA:FALSE
    Signature Algorithm: ecdsa-with-SHA256
         30:46:02:21:00:f9:9c:04:35:d2:67:79:13:df:f0:d4:03:de:
         d1:49:41:b0:15:a5:a6:d4:6c:90:4a:98:01:74:7d:de:72:c3:
         a6:02:21:00:8a:25:4d:19:ba:a3:3f:b9:ae:d4:9e:82:0b:2d:
         57:d1:42:ff:c0:0d:e6:ea:45:5e:4b:08:30:a4:a8:1d:63:91
-----BEGIN CERTIFICATE-----
MIIBLTCB06ADAgECAgIQBjAKBggqhkjOPQQDAjAWMRQwEgYDVQQDDAtzcm9zMnRl
c3RDQTAeFw0xODA5MjEyMjE2NDdaFw0yODA5MTgyMjE2NDdaMBoxGDAWBgNVBAMM
D3R3aXN0X3B1Ymxpc2hlcjBZMBMGByqGSM49AgEGCCqGSM49AwEHA0IABEHGFcfg
X3Lg3n//OE0LQCrvxG3nNx2fVH/3nyVSoxuG58iJpgXSTvSuHw2n34O9UBzaVlYi
8/UkwLA1PFLZMdejDTALMAkGA1UdEwQCMAAwCgYIKoZIzj0EAwIDSQAwRgIhAPmc
BDXSZ3kT3/DUA97RSUGwFaWm1GyQSpgBdH3ecsOmAiEAiiVNGbqjP7mu1J6CCy1X
0UL/wA3m6kVeSwgwpKgdY5E=
-----END CERTIFICATE-----
