Certificate:
    Data:
        Version: 3 (0x2)
        Serial Number: 4100 (0x1004)
    Signature Algorithm: ecdsa-with-SHA256
        Issuer: CN=sros2testCA
        Validity
            Not Before: Sep 21 22:16:33 2018 GMT
            Not After : Sep 18 22:16:33 2028 GMT
        Subject: CN=robot_state_publisher
        Subject Public Key Info:
            Public Key Algorithm: id-ecPublicKey
                Public-Key: (256 bit)
                pub: 
                    04:cd:f5:b4:b6:38:d0:aa:92:ad:76:8f:b3:8c:aa:
                    b6:b8:a4:15:d3:d5:03:d5:0f:58:af:33:97:46:76:
                    17:06:e2:8b:a7:38:55:71:51:da:24:3a:99:0a:b2:
                    9c:09:74:11:22:36:b5:25:c9:38:cb:a0:22:dc:d2:
                    18:50:8e:54:68
                ASN1 OID: prime256v1
                NIST CURVE: P-256
        X509v3 extensions:
            X509v3 Basic Constraints: 
                CA:FALSE
    Signature Algorithm: ecdsa-with-SHA256
         30:45:02:21:00:89:7b:e8:3c:6b:c4:0b:37:1f:ba:bc:34:9e:
         6b:82:02:c3:7f:d6:2f:51:9a:07:7e:8c:e8:81:08:64:86:89:
         d7:02:20:32:a8:d4:1a:05:ac:e7:a3:8c:e9:99:05:28:2f:1c:
         35:f1:18:60:5e:98:38:4b:f9:18:fe:fd:13:69:8f:75:eb
-----BEGIN CERTIFICATE-----
MIIBMjCB2aADAgECAgIQBDAKBggqhkjOPQQDAjAWMRQwEgYDVQQDDAtzcm9zMnRl
c3RDQTAeFw0xODA5MjEyMjE2MzNaFw0yODA5MTgyMjE2MzNaMCAxHjAcBgNVBAMM
FXJvYm90X3N0YXRlX3B1Ymxpc2hlcjBZMBMGByqGSM49AgEGCCqGSM49AwEHA0IA
BM31tLY40KqSrXaPs4yqtrikFdPVA9UPWK8zl0Z2Fwbii6c4VXFR2iQ6mQqynAl0
ESI2tSXJOMugItzSGFCOVGijDTALMAkGA1UdEwQCMAAwCgYIKoZIzj0EAwIDSAAw
RQIhAIl76DxrxAs3H7q8NJ5rggLDf9YvUZoHfozogQhkhonXAiAyqNQaBazno4zp
mQUoLxw18RhgXpg4S/kY/v0TaY916w==
-----END CERTIFICATE-----
