Certificate:
    Data:
        Version: 3 (0x2)
        Serial Number: 4100 (0x1004)
    Signature Algorithm: ecdsa-with-SHA256
        Issuer: CN=sros2testCA
        Validity
            Not Before: Sep 20 00:38:05 2018 GMT
            Not After : Sep 17 00:38:05 2028 GMT
        Subject: CN=path_publisher
        Subject Public Key Info:
            Public Key Algorithm: id-ecPublicKey
                Public-Key: (256 bit)
                pub: 
                    04:ab:dc:8b:e2:81:29:35:9e:da:d5:54:9d:8b:be:
                    56:12:08:48:d5:70:9c:2f:88:1b:ae:94:59:4d:1a:
                    4c:93:87:61:12:00:85:5c:aa:25:1a:16:c8:55:d5:
                    c1:58:f2:eb:0a:7b:80:7e:36:5e:fc:c4:47:a6:4e:
                    5a:05:c8:bb:b0
                ASN1 OID: prime256v1
                NIST CURVE: P-256
        X509v3 extensions:
            X509v3 Basic Constraints: 
                CA:FALSE
    Signature Algorithm: ecdsa-with-SHA256
         30:45:02:21:00:93:6b:a9:b2:20:11:f7:b6:92:5b:26:a6:cb:
         87:9c:58:60:c2:83:1e:36:41:07:c2:69:9a:02:dc:47:5a:87:
         20:02:20:76:47:d4:69:e3:0f:cb:a5:da:ab:92:27:4c:e3:5c:
         28:c5:44:2b:32:e9:a9:7f:f1:92:ae:ec:e7:20:b8:0e:97
-----BEGIN CERTIFICATE-----
MIIBKzCB0qADAgECAgIQBDAKBggqhkjOPQQDAjAWMRQwEgYDVQQDDAtzcm9zMnRl
c3RDQTAeFw0xODA5MjAwMDM4MDVaFw0yODA5MTcwMDM4MDVaMBkxFzAVBgNVBAMM
DnBhdGhfcHVibGlzaGVyMFkwEwYHKoZIzj0CAQYIKoZIzj0DAQcDQgAEq9yL4oEp
NZ7a1VSdi75WEghI1XCcL4gbrpRZTRpMk4dhEgCFXKolGhbIVdXBWPLrCnuAfjZe
/MRHpk5aBci7sKMNMAswCQYDVR0TBAIwADAKBggqhkjOPQQDAgNIADBFAiEAk2up
siAR97aSWyamy4ecWGDCgx42QQfCaZoC3EdahyACIHZH1GnjD8ul2quSJ0zjXCjF
RCsy6al/8ZKu7OcguA6X
-----END CERTIFICATE-----
