Certificate:
    Data:
        Version: 3 (0x2)
        Serial Number: 4099 (0x1003)
    Signature Algorithm: ecdsa-with-SHA256
        Issuer: CN=sros2testCA
        Validity
            Not Before: Sep 20 00:37:50 2018 GMT
            Not After : Sep 17 00:37:50 2028 GMT
        Subject: CN=confbot_laser
        Subject Public Key Info:
            Public Key Algorithm: id-ecPublicKey
                Public-Key: (256 bit)
                pub: 
                    04:6f:c2:dd:b0:e3:81:53:c4:1f:04:0b:b0:ee:eb:
                    ab:75:b2:a6:b4:58:c0:bd:4a:40:85:b8:db:4c:de:
                    f2:05:92:3f:99:1b:5d:e9:a2:8d:96:33:36:17:0d:
                    36:0c:38:88:0c:77:ba:c7:cf:d9:90:3d:13:b3:9d:
                    7e:0f:87:c5:ca
                ASN1 OID: prime256v1
                NIST CURVE: P-256
        X509v3 extensions:
            X509v3 Basic Constraints: 
                CA:FALSE
    Signature Algorithm: ecdsa-with-SHA256
         30:45:02:21:00:d4:10:73:0e:82:06:55:ee:c6:e3:eb:21:aa:
         70:ed:38:cb:54:bf:a6:b4:ff:5a:71:10:0f:1d:55:4b:0e:e4:
         44:02:20:67:11:68:ce:ac:e2:f7:dd:33:bc:15:a6:8d:1b:02:
         e0:db:97:58:e2:4c:7f:38:01:5f:7f:69:0a:24:e2:a2:5e
-----BEGIN CERTIFICATE-----
MIIBKjCB0aADAgECAgIQAzAKBggqhkjOPQQDAjAWMRQwEgYDVQQDDAtzcm9zMnRl
c3RDQTAeFw0xODA5MjAwMDM3NTBaFw0yODA5MTcwMDM3NTBaMBgxFjAUBgNVBAMM
DWNvbmZib3RfbGFzZXIwWTATBgcqhkjOPQIBBggqhkjOPQMBBwNCAARvwt2w44FT
xB8EC7Du66t1sqa0WMC9SkCFuNtM3vIFkj+ZG13poo2WMzYXDTYMOIgMd7rHz9mQ
PROznX4Ph8XKow0wCzAJBgNVHRMEAjAAMAoGCCqGSM49BAMCA0gAMEUCIQDUEHMO
ggZV7sbj6yGqcO04y1S/prT/WnEQDx1VSw7kRAIgZxFozqzi990zvBWmjRsC4NuX
WOJMfzgBX39pCiTiol4=
-----END CERTIFICATE-----
