Certificate:
    Data:
        Version: 3 (0x2)
        Serial Number: 4097 (0x1001)
    Signature Algorithm: ecdsa-with-SHA256
        Issuer: CN=sros2testCA
        Validity
            Not Before: Sep 21 22:16:09 2018 GMT
            Not After : Sep 18 22:16:09 2028 GMT
        Subject: CN=confbot_laser
        Subject Public Key Info:
            Public Key Algorithm: id-ecPublicKey
                Public-Key: (256 bit)
                pub: 
                    04:87:d5:19:9d:b9:a6:98:fc:98:1c:0a:5c:18:7e:
                    46:0f:7d:a9:7d:b8:30:79:9c:9a:c3:17:7a:82:e4:
                    a6:4c:41:3c:9f:41:48:cd:82:9d:bf:01:92:dd:25:
                    7c:54:61:b0:d2:d4:65:0e:c2:77:03:79:cb:e3:01:
                    30:57:32:42:82
                ASN1 OID: prime256v1
                NIST CURVE: P-256
        X509v3 extensions:
            X509v3 Basic Constraints: 
                CA:FALSE
    Signature Algorithm: ecdsa-with-SHA256
         30:44:02:20:49:e6:e7:6f:ba:e6:3b:37:2e:c8:e3:3d:e7:65:
         d5:d5:a2:6a:a8:f9:1b:29:7c:e4:0e:9d:4d:74:7e:5c:db:2a:
         02:20:60:b0:3d:34:9e:50:07:a3:b1:fc:67:87:7a:00:c7:77:
         1b:7e:57:ed:dc:1f:cd:db:84:d1:37:2f:fd:37:9a:36
-----BEGIN CERTIFICATE-----
MIIBKTCB0aADAgECAgIQATAKBggqhkjOPQQDAjAWMRQwEgYDVQQDDAtzcm9zMnRl
c3RDQTAeFw0xODA5MjEyMjE2MDlaFw0yODA5MTgyMjE2MDlaMBgxFjAUBgNVBAMM
DWNvbmZib3RfbGFzZXIwWTATBgcqhkjOPQIBBggqhkjOPQMBBwNCAASH1RmduaaY
/JgcClwYfkYPfal9uDB5nJrDF3qC5KZMQTyfQUjNgp2/AZLdJXxUYbDS1GUOwncD
ecvjATBXMkKCow0wCzAJBgNVHRMEAjAAMAoGCCqGSM49BAMCA0cAMEQCIEnm52+6
5js3LsjjPedl1dWiaqj5Gyl85A6dTXR+XNsqAiBgsD00nlAHo7H8Z4d6AMd3G35X
7dwfzduE0Tcv/TeaNg==
-----END CERTIFICATE-----
